target datalayout = "e-m:e-p270:32:32-p271:32:32-p272:64:64-i64:64-i128:128-f80:128-n8:16:32:64-S128"
target triple = "x86_64-pc-linux-gnu"

%struct.SDL_IOStreamInterface = type { i32, ptr, ptr, ptr, ptr, ptr, ptr }
%struct.SDL_IOStream = type { %struct.SDL_IOStreamInterface, ptr, i32, i32 }
%struct.IOStreamMemData = type { ptr, ptr, ptr }
%struct.IOStreamDynamicMemData = type { ptr, %struct.IOStreamMemData, ptr }

@.str.2 = private unnamed_addr constant [26 x i8] c"Parameter '%s' is invalid\00", align 1
@.str.11 = private unnamed_addr constant [8 x i8] c"context\00", align 1
@.str.27 = private unnamed_addr constant [28 x i8] c"SDL.iostream.dynamic.memory\00", align 1

; Function Attrs: nounwind uwtable
define hidden i32 @SDL_GetIOProperties_REAL(ptr noundef %0) #0 {
  %2 = alloca i32, align 4
  %3 = alloca ptr, align 8
  store ptr %0, ptr %3, align 8
  %4 = load ptr, ptr %3, align 8
  %5 = icmp ne ptr %4, null
  br i1 %5, label %8, label %6

6:                                                ; preds = %1
  %7 = call zeroext i1 (ptr, ...) @SDL_SetError_REAL(ptr noundef @.str.2, ptr noundef @.str.11)
  store i32 0, ptr %2, align 4
  br label %21

8:                                                ; preds = %1
  %9 = load ptr, ptr %3, align 8
  %10 = getelementptr inbounds nuw %struct.SDL_IOStream, ptr %9, i32 0, i32 3
  %11 = load i32, ptr %10, align 4
  %12 = icmp eq i32 %11, 0
  br i1 %12, label %13, label %17

13:                                               ; preds = %8
  %14 = call i32 @SDL_CreateProperties_REAL()
  %15 = load ptr, ptr %3, align 8
  %16 = getelementptr inbounds nuw %struct.SDL_IOStream, ptr %15, i32 0, i32 3
  store i32 %14, ptr %16, align 4
  br label %17

17:                                               ; preds = %13, %8
  %18 = load ptr, ptr %3, align 8
  %19 = getelementptr inbounds nuw %struct.SDL_IOStream, ptr %18, i32 0, i32 3
  %20 = load i32, ptr %19, align 4
  store i32 %20, ptr %2, align 4
  br label %21

21:                                               ; preds = %17, %6
  %22 = load i32, ptr %2, align 4
  ret i32 %22
}

; Function Attrs: nounwind uwtable
define internal zeroext i1 @dynamic_mem_close(ptr noundef %0) #0 {
  %2 = alloca ptr, align 8
  %3 = alloca ptr, align 8
  %4 = alloca ptr, align 8
  store ptr %0, ptr %2, align 8
  call void @llvm.lifetime.start.p0(i64 8, ptr %3) #11
  %5 = load ptr, ptr %2, align 8
  store ptr %5, ptr %3, align 8
  call void @llvm.lifetime.start.p0(i64 8, ptr %4) #11
  %6 = load ptr, ptr %3, align 8
  %7 = getelementptr inbounds nuw %struct.IOStreamDynamicMemData, ptr %6, i32 0, i32 0
  %8 = load ptr, ptr %7, align 8
  %9 = call i32 @SDL_GetIOProperties_REAL(ptr noundef %8)
  %10 = call ptr @SDL_GetPointerProperty_REAL(i32 noundef %9, ptr noundef @.str.27, ptr noundef null)
  store ptr %10, ptr %4, align 8
  %11 = load ptr, ptr %4, align 8
  %12 = icmp ne ptr %11, null
  br i1 %12, label %13, label %15

13:                                               ; preds = %1
  %14 = load ptr, ptr %4, align 8
  call void @SDL_free_REAL(ptr noundef %14)
  br label %15

15:                                               ; preds = %13, %1
  %16 = load ptr, ptr %2, align 8
  call void @SDL_free_REAL(ptr noundef %16)
  call void @llvm.lifetime.end.p0(i64 8, ptr %4) #11
  call void @llvm.lifetime.end.p0(i64 8, ptr %3) #11
  ret i1 true
}