; Function Attrs: nounwind uwtable
define internal noundef zeroext i1 @dynamic_mem_close(ptr noundef %0) #0 {
  %2 = load ptr, ptr %0, align 8
  %.not.i = icmp eq ptr %2, null
  br i1 %.not.i, label %3, label %5

3:                                                ; preds = %1
  %4 = tail call zeroext i1 (ptr, ...) @SDL_SetError_REAL(ptr noundef nonnull @.str.2, ptr noundef nonnull @.str.11) #18
  br label %SDL_GetIOProperties_REAL.exit

5:                                                ; preds = %1
  %6 = getelementptr inbounds nuw i8, ptr %2, i64 68
  %7 = load i32, ptr %6, align 4
  %8 = icmp eq i32 %7, 0
  br i1 %8, label %9, label %SDL_GetIOProperties_REAL.exit

9:                                                ; preds = %5
  %10 = tail call i32 @SDL_CreateProperties_REAL() #18
  store i32 %10, ptr %6, align 4
  br label %SDL_GetIOProperties_REAL.exit

SDL_GetIOProperties_REAL.exit:                    ; preds = %3, %5, %9
  %.0.i = phi i32 [ 0, %3 ], [ %10, %9 ], [ %7, %5 ]
  %11 = tail call ptr @SDL_GetPointerProperty_REAL(i32 noundef %.0.i, ptr noundef nonnull @.str.27, ptr noundef null) #18
  %.not = icmp eq ptr %11, null
  br i1 %.not, label %13, label %12

12:                                               ; preds = %SDL_GetIOProperties_REAL.exit
  tail call void @SDL_free_REAL(ptr noundef nonnull %11) #18
  br label %13

13:                                               ; preds = %12, %SDL_GetIOProperties_REAL.exit
  tail call void @SDL_free_REAL(ptr noundef nonnull %0) #18
  ret i1 true
}